(dp0
I0
I1
sI1
I0
sI2
I2
sI3
I1
sI4
I3
sI5
I1
sI6
I6
sI7
I7
sI8
I0
sI9
I0
sI10
I10
sI11
I1
sI12
I5
sI13
I1
sI14
I3
sI15
I0
sI16
I0
sI17
I8
sI18
I7
sI19
I3
sI20
I2
sI21
I7
sI22
I2
sI23
I5
sI24
I6
sI25
I4
sI26
I0
sI27
I3
sI28
I2
sI29
I0
sI30
I3
sI31
I4
sI32
I1
sI33
I0
sI34
I2
sI35
I0
sI36
I5
sI37
I7
sI38
I8
sI39
I4
sI40
I0
sI41
I6
sI42
I3
sI43
I0
sI44
I0
sI45
I0
sI46
I2
sI47
I0
sI48
I4
sI49
I1
sI50
I0
sI51
I5
sI52
I5
sI53
I1
sI54
I2
sI55
I1
sI56
I0
sI57
I0
sI58
I0
sI59
I0
sI60
I1
sI61
I6
sI62
I8
sI63
I0
sI64
I0
sI65
I0
sI66
I10
sI67
I6
sI68
I2
sI69
I5
sI70
I1
sI71
I6
sI72
I0
sI73
I0
sI74
I1
sI75
I1
sI76
I0
sI77
I0
sI78
I5
sI79
I0
sI80
I0
sI81
I0
sI82
I2
sI83
I1
sI84
I5
sI85
I2
sI86
I0
sI87
I0
sI88
I0
sI89
I0
sI90
I0
sI91
I2
sI92
I4
sI93
I0
sI94
I0
sI95
I0
sI96
I0
sI97
I0
sI98
I0
sI99
I1
sI100
I0
sI101
I8
sI102
I0
sI103
I0
sI104
I1
sI105
I0
sI106
I0
sI107
I0
sI108
I0
sI109
I0
sI110
I0
sI111
I0
sI112
I1
sI113
I0
sI114
I0
sI115
I12
sI116
I3
sI117
I0
s.